target datalayout = "e-m:e-p270:32:32-p271:32:32-p272:64:64-i64:64-i128:128-f80:128-n8:16:32:64-S128"
target triple = "x86_64-pc-linux-gnu"

%struct.ec_group_st = type { ptr, ptr, ptr, ptr, i32, i32, i32, i32, ptr, i64, ptr, [6 x i32], ptr, ptr, i32, ptr, ptr, ptr, ptr, i32, %union.anon, ptr, ptr }
%union.anon = type { ptr }

; Function Attrs: nounwind uwtable
define i32 @ossl_ec_GFp_mont_group_copy(ptr noundef %0, ptr noundef %1) #0 {
  %3 = alloca i32, align 4
  %4 = alloca ptr, align 8
  %5 = alloca ptr, align 8
  store ptr %0, ptr %4, align 8, !tbaa !3
  store ptr %1, ptr %5, align 8, !tbaa !3
  %6 = load ptr, ptr %4, align 8, !tbaa !3
  %7 = getelementptr inbounds nuw %struct.ec_group_st, ptr %6, i32 0, i32 15
  %8 = load ptr, ptr %7, align 8, !tbaa !10
  call void @BN_MONT_CTX_free(ptr noundef %8)
  %9 = load ptr, ptr %4, align 8, !tbaa !3
  %10 = getelementptr inbounds nuw %struct.ec_group_st, ptr %9, i32 0, i32 15
  store ptr null, ptr %10, align 8, !tbaa !10
  %11 = load ptr, ptr %4, align 8, !tbaa !3
  %12 = getelementptr inbounds nuw %struct.ec_group_st, ptr %11, i32 0, i32 16
  %13 = load ptr, ptr %12, align 8, !tbaa !19
  call void @BN_clear_free(ptr noundef %13)
  %14 = load ptr, ptr %4, align 8, !tbaa !3
  %15 = getelementptr inbounds nuw %struct.ec_group_st, ptr %14, i32 0, i32 16
  store ptr null, ptr %15, align 8, !tbaa !19
  %16 = load ptr, ptr %4, align 8, !tbaa !3
  %17 = load ptr, ptr %5, align 8, !tbaa !3
  %18 = call i32 @ossl_ec_GFp_simple_group_copy(ptr noundef %16, ptr noundef %17)
  %19 = icmp ne i32 %18, 0
  br i1 %19, label %21, label %20

20:                                               ; preds = %2
  store i32 0, ptr %3, align 4
  br label %71

21:                                               ; preds = %2
  %22 = load ptr, ptr %5, align 8, !tbaa !3
  %23 = getelementptr inbounds nuw %struct.ec_group_st, ptr %22, i32 0, i32 15
  %24 = load ptr, ptr %23, align 8, !tbaa !10
  %25 = icmp ne ptr %24, null
  br i1 %25, label %26, label %46

26:                                               ; preds = %21
  %27 = call ptr @BN_MONT_CTX_new()
  %28 = load ptr, ptr %4, align 8, !tbaa !3
  %29 = getelementptr inbounds nuw %struct.ec_group_st, ptr %28, i32 0, i32 15
  store ptr %27, ptr %29, align 8, !tbaa !10
  %30 = load ptr, ptr %4, align 8, !tbaa !3
  %31 = getelementptr inbounds nuw %struct.ec_group_st, ptr %30, i32 0, i32 15
  %32 = load ptr, ptr %31, align 8, !tbaa !10
  %33 = icmp eq ptr %32, null
  br i1 %33, label %34, label %35

34:                                               ; preds = %26
  store i32 0, ptr %3, align 4
  br label %71

35:                                               ; preds = %26
  %36 = load ptr, ptr %4, align 8, !tbaa !3
  %37 = getelementptr inbounds nuw %struct.ec_group_st, ptr %36, i32 0, i32 15
  %38 = load ptr, ptr %37, align 8, !tbaa !10
  %39 = load ptr, ptr %5, align 8, !tbaa !3
  %40 = getelementptr inbounds nuw %struct.ec_group_st, ptr %39, i32 0, i32 15
  %41 = load ptr, ptr %40, align 8, !tbaa !10
  %42 = call ptr @BN_MONT_CTX_copy(ptr noundef %38, ptr noundef %41)
  %43 = icmp ne ptr %42, null
  br i1 %43, label %45, label %44

44:                                               ; preds = %35
  br label %65

45:                                               ; preds = %35
  br label %46

46:                                               ; preds = %45, %21
  %47 = load ptr, ptr %5, align 8, !tbaa !3
  %48 = getelementptr inbounds nuw %struct.ec_group_st, ptr %47, i32 0, i32 16
  %49 = load ptr, ptr %48, align 8, !tbaa !19
  %50 = icmp ne ptr %49, null
  br i1 %50, label %51, label %64

51:                                               ; preds = %46
  %52 = load ptr, ptr %5, align 8, !tbaa !3
  %53 = getelementptr inbounds nuw %struct.ec_group_st, ptr %52, i32 0, i32 16
  %54 = load ptr, ptr %53, align 8, !tbaa !19
  %55 = call ptr @BN_dup(ptr noundef %54)
  %56 = load ptr, ptr %4, align 8, !tbaa !3
  %57 = getelementptr inbounds nuw %struct.ec_group_st, ptr %56, i32 0, i32 16
  store ptr %55, ptr %57, align 8, !tbaa !19
  %58 = load ptr, ptr %4, align 8, !tbaa !3
  %59 = getelementptr inbounds nuw %struct.ec_group_st, ptr %58, i32 0, i32 16
  %60 = load ptr, ptr %59, align 8, !tbaa !19
  %61 = icmp eq ptr %60, null
  br i1 %61, label %62, label %63

62:                                               ; preds = %51
  br label %65

63:                                               ; preds = %51
  br label %64

64:                                               ; preds = %63, %46
  store i32 1, ptr %3, align 4
  br label %71

65:                                               ; preds = %62, %44
  %66 = load ptr, ptr %4, align 8, !tbaa !3
  %67 = getelementptr inbounds nuw %struct.ec_group_st, ptr %66, i32 0, i32 15
  %68 = load ptr, ptr %67, align 8, !tbaa !10
  call void @BN_MONT_CTX_free(ptr noundef %68)
  %69 = load ptr, ptr %4, align 8, !tbaa !3
  %70 = getelementptr inbounds nuw %struct.ec_group_st, ptr %69, i32 0, i32 15
  store ptr null, ptr %70, align 8, !tbaa !10
  store i32 0, ptr %3, align 4
  br label %71

71:                                               ; preds = %65, %64, %34, %20
  %72 = load i32, ptr %3, align 4
  ret i32 %72
}