; Function Attrs: nounwind uwtable
define range(i32 0, 2) i32 @ossl_ec_GFp_mont_group_copy(ptr noundef %0, ptr noundef %1) #1 {
  %3 = getelementptr inbounds nuw i8, ptr %0, i64 120
  %4 = load ptr, ptr %3, align 8, !tbaa !3
  tail call void @BN_MONT_CTX_free(ptr noundef %4) #4
  store ptr null, ptr %3, align 8, !tbaa !3
  %5 = getelementptr inbounds nuw i8, ptr %0, i64 128
  %6 = load ptr, ptr %5, align 8, !tbaa !16
  tail call void @BN_clear_free(ptr noundef %6) #4
  store ptr null, ptr %5, align 8, !tbaa !16
  %7 = tail call i32 @ossl_ec_GFp_simple_group_copy(ptr noundef %0, ptr noundef %1) #4
  %.not = icmp eq i32 %7, 0
  br i1 %.not, label %25, label %8

8:                                                ; preds = %2
  %9 = getelementptr inbounds nuw i8, ptr %1, i64 120
  %10 = load ptr, ptr %9, align 8, !tbaa !3
  %.not19 = icmp eq ptr %10, null
  br i1 %.not19, label %17, label %11

11:                                               ; preds = %8
  %12 = tail call ptr @BN_MONT_CTX_new() #4
  store ptr %12, ptr %3, align 8, !tbaa !3
  %13 = icmp eq ptr %12, null
  br i1 %13, label %25, label %14

14:                                               ; preds = %11
  %15 = load ptr, ptr %9, align 8, !tbaa !3
  %16 = tail call ptr @BN_MONT_CTX_copy(ptr noundef nonnull %12, ptr noundef %15) #4
  %.not20 = icmp eq ptr %16, null
  br i1 %.not20, label %23, label %17

17:                                               ; preds = %14, %8
  %18 = getelementptr inbounds nuw i8, ptr %1, i64 128
  %19 = load ptr, ptr %18, align 8, !tbaa !16
  %.not21 = icmp eq ptr %19, null
  br i1 %.not21, label %25, label %20

20:                                               ; preds = %17
  %21 = tail call ptr @BN_dup(ptr noundef nonnull %19) #4
  store ptr %21, ptr %5, align 8, !tbaa !16
  %22 = icmp eq ptr %21, null
  br i1 %22, label %23, label %25

23:                                               ; preds = %20, %14
  %24 = load ptr, ptr %3, align 8, !tbaa !3
  tail call void @BN_MONT_CTX_free(ptr noundef %24) #4
  store ptr null, ptr %3, align 8, !tbaa !3
  br label %25

25:                                               ; preds = %17, %20, %11, %2, %23
  %.0 = phi i32 [ 0, %23 ], [ 0, %2 ], [ 0, %11 ], [ 1, %20 ], [ 1, %17 ]
  ret i32 %.0
}